ccopy_reg
_reconstructor
p0
(ccomponents.settings
SettingsData
p1
c__builtin__
object
p2
Ntp3
Rp4
(dp5
S'notify'
p6
(dp7
S'disconnect'
p8
I01
sS'incoming'
p9
I01
sS'connect'
p10
I01
sS'missed'
p11
I01
ssb.